(dp0
S'StrelkaSomatic'
p1
(dp2
S'genomeRegionList'
p3
NsS'isEstimateSequenceError'
p4
I00
sS'isExome'
p5
I01
sS'referenceFasta'
p6
S'/ifs/data/sequence/Illumina/igor/ref/hg19/genome.fa'
p7
sS'normalBamList'
p8
(lp9
S'/ifs/data/molecpathlab/NGS580_WES-development/sns-demo/BAM-GATK-RA-RC/HapMap-B17-1267.dd.ra.rc.bam'
p10
asS'indelErrorModelName'
p11
NsS'sindelNoiseFactor'
p12
S'2.2'
p13
sS'depthFilterMultiple'
p14
S'3.0'
p15
sS'statsMergeBin'
p16
S'/ifs/home/id460/software/strelka/strelka-2.8.3/libexec/MergeRunStats'
p17
sS'isEVS'
p18
I01
sS'mergeChromDepth'
p19
S'/ifs/home/id460/software/strelka/strelka-2.8.3/libexec/mergeChromDepth.py'
p20
sS'snvScoringModelFile'
p21
S'/ifs/home/id460/software/strelka/strelka-2.8.3/share/config/somaticSNVScoringModels.json'
p22
sS'libexecDir'
p23
S'/ifs/home/id460/software/strelka/strelka-2.8.3/libexec'
p24
sS'isRetainTempFiles'
p25
I00
sS'minTier2Mapq'
p26
S'0'
p27
sS'ssnvQuality_LowerBound'
p28
S'15'
p29
sS'isReportEVSFeatures'
p30
I00
sS'tabixBin'
p31
S'/ifs/home/id460/software/strelka/strelka-2.8.3/libexec/tabix'
p32
sS'sindelQuality_LowerBound'
p33
S'40'
p34
sS'snvMaxSpanningDeletionFrac'
p35
S'0.75'
p36
sS'callRegionsBed'
p37
NsS'ssnvPrior'
p38
S'0.0001'
p39
sS'sindelPrior'
p40
S'0.000001'
p41
sS'samtoolsBin'
p42
S'/ifs/home/id460/software/strelka/strelka-2.8.3/libexec/samtools'
p43
sS'ssnvNoise'
p44
S'0.0000000005'
p45
sS'bgcatBin'
p46
S'/ifs/home/id460/software/strelka/strelka-2.8.3/libexec/bgzf_cat'
p47
sS'indelContamTolerance'
p48
S'0.15'
p49
sS'vcfCmdlineSwapper'
p50
S'/ifs/home/id460/software/strelka/strelka-2.8.3/libexec/vcfCmdlineSwapper.py'
p51
sS'countFastaBin'
p52
S'/ifs/home/id460/software/strelka/strelka-2.8.3/libexec/countFastaBases'
p53
sS'forcedGTList'
p54
NsS'extraVariantCallerArguments'
p55
NsS'indelCandidatesList'
p56
(lp57
S'/ifs/data/molecpathlab/NGS580_WES-development/sns-demo/logs-snvs-strelka/SeraCare-1to1-Positive-HapMap-B17-1267-manta/results/variants/candidateSmallIndels.vcf.gz'
p58
asS'callLocalMemMb'
p59
I2048
sS'strelkaSomaticBin'
p60
S'/ifs/home/id460/software/strelka/strelka-2.8.3/libexec/strelka2'
p61
sS'isWriteRealignedBam'
p62
g27
sS'getChromDepthBin'
p63
S'/ifs/home/id460/software/strelka/strelka-2.8.3/libexec/GetChromDepth'
p64
sS'callSGEMemMb'
p65
I4096
sS'inputIndelErrorModelsFile'
p66
NsS'ssnvNoiseStrandBiasFrac'
p67
S'0.0'
p68
sS'errorEstimationMinChromMb'
p69
I5
sS'catScript'
p70
S'/ifs/home/id460/software/strelka/strelka-2.8.3/libexec/cat.py'
p71
sS'htsfileBin'
p72
S'/ifs/home/id460/software/strelka/strelka-2.8.3/libexec/htsfile'
p73
sS'indelScoringModelFile'
p74
S'/ifs/home/id460/software/strelka/strelka-2.8.3/share/config/somaticIndelScoringModels.json'
p75
sS'regionStrList'
p76
NsS'isOutputCallableRegions'
p77
I01
sS'ssnvContamTolerance'
p78
S'0.15'
p79
sS'snvMaxFilteredBasecallFrac'
p80
S'0.4'
p81
sS'errorEstimationMinTotalMb'
p82
I50
sS'callMemMbOverride'
p83
NsS'userConfigPath'
p84
NsS'noiseVcfList'
p85
NsS'isRNA'
p86
I00
sS'minTier1Mapq'
p87
S'20'
p88
sS'runDir'
p89
S'/ifs/data/molecpathlab/NGS580_WES-development/sns-demo/logs-snvs-strelka/SeraCare-1to1-Positive-HapMap-B17-1267-strelka'
p90
sS'tumorBamList'
p91
(lp92
S'/ifs/data/molecpathlab/NGS580_WES-development/sns-demo/BAM-GATK-RA-RC/SeraCare-1to1-Positive.dd.ra.rc.bam'
p93
asS'scanSizeMb'
p94
I12
sS'bgzipBin'
p95
S'/ifs/home/id460/software/strelka/strelka-2.8.3/libexec/bgzip'
p96
sS'configCommandLine'
p97
(lp98
S'/ifs/home/id460/software/strelka/strelka-2.8.3/bin/configureStrelkaSomaticWorkflow.py'
p99
aS'--exome'
p100
aS'--outputCallableRegions'
p101
aS'--referenceFasta'
p102
aS'/ifs/data/sequence/Illumina/igor/ref/hg19/genome.fa'
p103
aS'--tumorBam'
p104
aS'/ifs/data/molecpathlab/NGS580_WES-development/sns-demo/BAM-GATK-RA-RC/SeraCare-1to1-Positive.dd.ra.rc.bam'
p105
aS'--normalBam'
p106
aS'/ifs/data/molecpathlab/NGS580_WES-development/sns-demo/BAM-GATK-RA-RC/HapMap-B17-1267.dd.ra.rc.bam'
p107
aS'--indelCandidates'
p108
aS'/ifs/data/molecpathlab/NGS580_WES-development/sns-demo/logs-snvs-strelka/SeraCare-1to1-Positive-HapMap-B17-1267-manta/results/variants/candidateSmallIndels.vcf.gz'
p109
aS'--runDir'
p110
aS'/ifs/data/molecpathlab/NGS580_WES-development/sns-demo/logs-snvs-strelka/SeraCare-1to1-Positive-HapMap-B17-1267-strelka'
p111
asS'indelMaxWindowFilteredBasecallFrac'
p112
S'0.3'
p113
ss.