(dp0
S'manta'
p1
(dp2
S'existingAlignStatsFile'
p3
NsS'mantaMergeStatsBin'
p4
S'/ifs/home/id460/software/manta/manta-1.2.1/libexec/MergeAlignmentStats'
p5
sS'isExome'
p6
I01
sS'minPassDiploidVariantScore'
p7
S'20'
p8
sS'referenceFasta'
p9
S'/ifs/data/sequence/Illumina/igor/ref/hg19/genome.fa'
p10
sS'hyGenSGEMemMb'
p11
I4096
sS'minPassSomaticScore'
p12
S'30'
p13
sS'tumorBamList'
p14
(lp15
S'/ifs/data/molecpathlab/NGS580_WES-development/sns-demo/BAM-GATK-RA-RC/SeraCare-1to1-Positive.dd.ra.rc.bam'
p16
asS'normalBamList'
p17
(lp18
S'/ifs/data/molecpathlab/NGS580_WES-development/sns-demo/BAM-GATK-RA-RC/HapMap-B17-1267.dd.ra.rc.bam'
p19
asS'estimateMemMb'
p20
I2048
sS'mantaSortVcf'
p21
S'/ifs/home/id460/software/manta/manta-1.2.1/libexec/sortVcf.py'
p22
sS'mergeChromDepth'
p23
S'/ifs/home/id460/software/manta/manta-1.2.1/libexec/mergeChromDepth.py'
p24
sS'libexecDir'
p25
S'/ifs/home/id460/software/manta/manta-1.2.1/libexec'
p26
sS'isRetainTempFiles'
p27
I00
sS'isRNA'
p28
I00
sS'mantaSortEdgeLogs'
p29
S'/ifs/home/id460/software/manta/manta-1.2.1/libexec/sortEdgeLogs.py'
p30
sS'tabixBin'
p31
S'/ifs/home/id460/software/manta/manta-1.2.1/libexec/tabix'
p32
sS'callRegionsBed'
p33
NsS'rnaMinCandidateVariantSize'
p34
S'1000'
p35
sS'mantaGraphMergeBin'
p36
S'/ifs/home/id460/software/manta/manta-1.2.1/libexec/MergeSVLoci'
p37
sS'mantaPloidyFilter'
p38
S'/ifs/home/id460/software/manta/manta-1.2.1/libexec/ploidyFilter.py'
p39
sS'mantaSortBam'
p40
S'/ifs/home/id460/software/manta/manta-1.2.1/libexec/sortBam.py'
p41
sS'samtoolsBin'
p42
S'/ifs/home/id460/software/manta/manta-1.2.1/libexec/samtools'
p43
sS'useExistingChromDepths'
p44
I00
sS'vcfCmdlineSwapper'
p45
S'/ifs/home/id460/software/manta/manta-1.2.1/libexec/vcfCmdlineSwapper.py'
p46
sS'mantaExtraSmallVcf'
p47
S'/ifs/home/id460/software/manta/manta-1.2.1/libexec/extractSmallIndelCandidates.py'
p48
sS'mantaFilterBam'
p49
S'/ifs/home/id460/software/manta/manta-1.2.1/libexec/filterBam.py'
p50
sS'mantaMergeBam'
p51
S'/ifs/home/id460/software/manta/manta-1.2.1/libexec/mergeBam.py'
p52
sS'mantaStatsSummaryBin'
p53
S'/ifs/home/id460/software/manta/manta-1.2.1/libexec/SummarizeAlignmentStats'
p54
sS'minScoredVariantSize'
p55
S'51'
p56
sS'mantaGraphStatsBin'
p57
S'/ifs/home/id460/software/manta/manta-1.2.1/libexec/SummarizeSVLoci'
p58
sS'mantaGraphCheckBin'
p59
S'/ifs/home/id460/software/manta/manta-1.2.1/libexec/CheckSVLoci'
p60
sS'minSomaticScore'
p61
S'10'
p62
sS'minCandidateVariantSize'
p63
S'8'
p64
sS'nonlocalWorkBins'
p65
I256
sS'genomeRegionList'
p66
NsS'getChromDepthBin'
p67
S'/ifs/home/id460/software/manta/manta-1.2.1/libexec/GetChromDepth'
p68
sS'minPassDiploidGTScore'
p69
S'15'
p70
sS'regionStrList'
p71
NsS'catScript'
p72
S'/ifs/home/id460/software/manta/manta-1.2.1/libexec/cat.py'
p73
sS'runDir'
p74
S'/ifs/data/molecpathlab/NGS580_WES-development/sns-demo/logs-snvs-strelka/SeraCare-1to1-Positive-HapMap-B17-1267-manta'
p75
sS'hyGenLocalMemMb'
p76
I2048
sS'mantaGraphBin'
p77
S'/ifs/home/id460/software/manta/manta-1.2.1/libexec/EstimateSVLoci'
p78
sS'isUnstrandedRNA'
p79
I00
sS'mergeMemMb'
p80
I4096
sS'isGenerateSupportBam'
p81
I00
sS'userConfigPath'
p82
NsS'minEdgeObservations'
p83
S'3'
p84
sS'minDiploidVariantScore'
p85
S'10'
p86
sS'minCandidateSpanningCount'
p87
g84
sS'mantaStatsBin'
p88
S'/ifs/home/id460/software/manta/manta-1.2.1/libexec/GetAlignmentStats'
p89
sS'mantaHyGenBin'
p90
S'/ifs/home/id460/software/manta/manta-1.2.1/libexec/GenerateSVCandidates'
p91
sS'htsfileBin'
p92
S'/ifs/home/id460/software/manta/manta-1.2.1/libexec/htsfile'
p93
sS'mantaStatsMergeBin'
p94
S'/ifs/home/id460/software/manta/manta-1.2.1/libexec/MergeEdgeStats'
p95
sS'scanSizeMb'
p96
I12
sS'bgzipBin'
p97
S'/ifs/home/id460/software/manta/manta-1.2.1/libexec/bgzip'
p98
sS'configCommandLine'
p99
(lp100
S'/ifs/home/id460/software/manta/manta-1.2.1/bin/configManta.py'
p101
aS'--exome'
p102
aS'--referenceFasta'
p103
aS'/ifs/data/sequence/Illumina/igor/ref/hg19/genome.fa'
p104
aS'--tumorBam'
p105
aS'/ifs/data/molecpathlab/NGS580_WES-development/sns-demo/BAM-GATK-RA-RC/SeraCare-1to1-Positive.dd.ra.rc.bam'
p106
aS'--normalBam'
p107
aS'/ifs/data/molecpathlab/NGS580_WES-development/sns-demo/BAM-GATK-RA-RC/HapMap-B17-1267.dd.ra.rc.bam'
p108
aS'--runDir'
p109
aS'/ifs/data/molecpathlab/NGS580_WES-development/sns-demo/logs-snvs-strelka/SeraCare-1to1-Positive-HapMap-B17-1267-manta'
p110
asS'isOutputContig'
p111
I00
ss.